(dp0
S'SixAxis_rock1_4'
p1
(I0
I1
tp2
sS'SixAxis_rock1_5'
p3
(I0
I1
tp4
sS'SixAxis_rock1_0'
p5
(F-2.37335205078125
I1
tp6
sS'SixAxis_rock1_1'
p7
(F-5.5126953125
I1
tp8
sS'SixAxis_rock1_2'
p9
(F-2.2100830078125
I1
tp10
sS'SixAxis_rock1_3'
p11
(I0
I1
tp12
s.