(dp0
S'SixAxis_rock1_4'
p1
(F-5.51025390625
F96.37647058823529
tp2
sS'SixAxis_rock1_5'
p3
(F-2.17681884765625
F-546.1333333333333
tp4
sS'SixAxis_rock1_0'
p5
(F-9.99969482421875
I1
tp6
sS'SixAxis_rock1_1'
p7
(F-9.99969482421875
I1
tp8
sS'SixAxis_rock1_2'
p9
(F2.3248291015625
I1
tp10
sS'SixAxis_rock1_3'
p11
(F-2.3565673828125
F86.23157894736842
tp12
s.