(dp0
S'ForcePlates_plates_1'
p1
(F-14.5482
F0.00558753175813363
tp2
sS'SixAxis_rock1_3'
p3
(F3.52569580078125
F19.162573099415205
tp4
sS'M5237'
p5
(lp6
(lp7
F0.6789
aF0.0034
aF-0.0013
aF-0.2676
aF0.2778
aF0.0501
aa(lp8
F0.0098
aF0.6808
aF0.0023
aF-0.4103
aF-0.1925
aF0.0485
aa(lp9
F-0.004
aF-0.0045
aF0.1643
aF-0.0228
aF-0.0171
aF0.0114
aa(lp10
F-0.0059
aF-0.0037
aF-0.0029
aF38.7248
aF0.0656
aF-0.0667
aa(lp11
F-0.0037
aF0.0103
aF0.0064
aF0.1106
aF38.6657
aF0.0941
aa(lp12
F0.0024
aF-0.0004
aF0.0008
aF-0.0325
aF-0.0992
aF27.5819
aasS'SixAxis_rock1_4'
p13
(F7.07550048828125
F-22.755555555555556
tp14
sS'SixAxis_rock1_5'
p15
(F-5.41168212890625
F-297.8909090909091
tp16
sS'SixAxis_rock1_0'
p17
(F9.17816162109375
F-61.82641509433962
tp18
sS'SixAxis_rock1_1'
p19
(F4.60540771484375
F-3.1118708452041783
tp20
sS'SixAxis_rock1_2'
p21
(F5.82977294921875
F99.2969696969697
tp22
sS'ForcePlates_plates_0'
p23
(F-17.0186
F0.005596114953154921
tp24
sS'ForcePlates_plates_3'
p25
(F-91.4063
I1
tp26
sS'ForcePlates_plates_2'
p27
(F-94.1512
F0.005349604690961362
tp28
s.