(dp0
S'ForcePlates_plates_1'
p1
(F-16.1951
F0.00558753175813363
tp2
sS'SixAxis_rock1_3'
p3
(F3.52569580078125
F19.162573099415205
tp4
sS'SixAxis_rock1_4'
p5
(F7.07550048828125
F-22.755555555555556
tp6
sS'SixAxis_rock1_5'
p7
(F-5.41168212890625
F-297.8909090909091
tp8
sS'SixAxis_rock1_0'
p9
(F9.17816162109375
F-61.82641509433962
tp10
sS'SixAxis_rock1_1'
p11
(F4.60540771484375
F-3.1118708452041783
tp12
sS'SixAxis_rock1_2'
p13
(F5.82977294921875
F99.2969696969697
tp14
sS'ForcePlates_plates_0'
p15
(F-17.2931
F0.005596114953154921
tp16
sS'ForcePlates_plates_3'
p17
(F-94.7002
I1
tp18
sS'ForcePlates_plates_2'
p19
(F-96.3471
F0.005349604690961362
tp20
s.